target datalayout = "e-m:e-p270:32:32-p271:32:32-p272:64:64-i64:64-i128:128-f80:128-n8:16:32:64-S128"
target triple = "x86_64-pc-linux-gnu"

@_ZL8registry = internal global ptr null, align 8

; Function Attrs: mustprogress uwtable
define void @_ZN6icu_7714Transliterator14_registerAliasERKNS_13UnicodeStringES3_(ptr noundef nonnull align 8 dereferenceable(64) %0, ptr noundef nonnull align 8 dereferenceable(64) %1) #1 align 2 {
  %3 = alloca ptr, align 8
  %4 = alloca ptr, align 8
  %5 = alloca i32, align 4
  store ptr %0, ptr %3, align 8, !tbaa !25
  store ptr %1, ptr %4, align 8, !tbaa !25
  call void @llvm.lifetime.start.p0(i64 4, ptr %5) #15
  store i32 0, ptr %5, align 4, !tbaa !15
  %6 = load ptr, ptr @_ZL8registry, align 8, !tbaa !86
  %7 = load ptr, ptr %3, align 8, !tbaa !25
  %8 = load ptr, ptr %4, align 8, !tbaa !25
  call void @_ZN6icu_7722TransliteratorRegistry3putERKNS_13UnicodeStringES3_aaR10UErrorCode(ptr noundef nonnull align 8 dereferenceable(312) %6, ptr noundef nonnull align 8 dereferenceable(64) %7, ptr noundef nonnull align 8 dereferenceable(64) %8, i8 noundef signext 0, i8 noundef signext 1, ptr noundef nonnull align 4 dereferenceable(4) %5)
  call void @llvm.lifetime.end.p0(i64 4, ptr %5) #15
  ret void
}