; Function Attrs: mustprogress uwtable
define void @_ZN6icu_7714Transliterator14_registerAliasERKNS_13UnicodeStringES3_(ptr noundef nonnull align 8 dereferenceable(64) %0, ptr noundef nonnull align 8 dereferenceable(64) %1) local_unnamed_addr #1 align 2 {
  %3 = alloca i32, align 4
  call void @llvm.lifetime.start.p0(i64 4, ptr nonnull %3) #21
  store i32 0, ptr %3, align 4, !tbaa !13
  %4 = load ptr, ptr @_ZL8registry, align 8, !tbaa !49
  call void @_ZN6icu_7722TransliteratorRegistry3putERKNS_13UnicodeStringES3_aaR10UErrorCode(ptr noundef nonnull align 8 dereferenceable(312) %4, ptr noundef nonnull align 8 dereferenceable(64) %0, ptr noundef nonnull align 8 dereferenceable(64) %1, i8 noundef signext 0, i8 noundef signext 1, ptr noundef nonnull align 4 dereferenceable(4) %3)
  call void @llvm.lifetime.end.p0(i64 4, ptr nonnull %3) #21
  ret void
}